libre2.so.10:_ZN3re211FilteredRE214PrintPrefilterEi
libre2.so.10:_ZN3re211FilteredRE219RegexpsGivenStringsERKSt6vectorIiSaIiEEPS3_
libre2.so.10:_ZN3re211FilteredRE23AddERKNS_11StringPieceERKNS_3RE27OptionsEPi
libre2.so.10:_ZN3re211FilteredRE27CompileEPSt6vectorINSt7__cxx1112basic_stringIcSt11char_traitsIcESaIcEEESaIS7_EE
libre2.so.10:_ZN3re211FilteredRE2C1EOS0_
libre2.so.10:_ZN3re211FilteredRE2C1Ei
libre2.so.10:_ZN3re211FilteredRE2C1Ev
libre2.so.10:_ZN3re211FilteredRE2C2EOS0_
libre2.so.10:_ZN3re211FilteredRE2C2Ei
libre2.so.10:_ZN3re211FilteredRE2C2Ev
libre2.so.10:_ZN3re211FilteredRE2D1Ev
libre2.so.10:_ZN3re211FilteredRE2D2Ev
libre2.so.10:_ZN3re211FilteredRE2aSEOS0_
libre2.so.10:_ZN3re212re2_internal5ParseINS_11StringPieceEEEbPKcmPT_
libre2.so.10:_ZN3re212re2_internal5ParseINSt7__cxx1112basic_stringIcSt11char_traitsIcESaIcEEEEEbPKcmPT_
libre2.so.10:_ZN3re212re2_internal5ParseIaEEbPKcmPT_
libre2.so.10:_ZN3re212re2_internal5ParseIcEEbPKcmPT_
libre2.so.10:_ZN3re212re2_internal5ParseIdEEbPKcmPT_
libre2.so.10:_ZN3re212re2_internal5ParseIfEEbPKcmPT_
libre2.so.10:_ZN3re212re2_internal5ParseIhEEbPKcmPT_
libre2.so.10:_ZN3re212re2_internal5ParseIiEEbPKcmPT_i
libre2.so.10:_ZN3re212re2_internal5ParseIjEEbPKcmPT_i
libre2.so.10:_ZN3re212re2_internal5ParseIlEEbPKcmPT_i
libre2.so.10:_ZN3re212re2_internal5ParseImEEbPKcmPT_i
libre2.so.10:_ZN3re212re2_internal5ParseIsEEbPKcmPT_i
libre2.so.10:_ZN3re212re2_internal5ParseItEEbPKcmPT_i
libre2.so.10:_ZN3re212re2_internal5ParseIvEEbPKcmPT_
libre2.so.10:_ZN3re212re2_internal5ParseIxEEbPKcmPT_i
libre2.so.10:_ZN3re212re2_internal5ParseIyEEbPKcmPT_i
libre2.so.10:_ZN3re23RE210FullMatchNERKNS_11StringPieceERKS0_PKPKNS0_3ArgEi
libre2.so.10:_ZN3re23RE211MaxSubmatchERKNS_11StringPieceE
libre2.so.10:_ZN3re23RE213GlobalReplaceEPNSt7__cxx1112basic_stringIcSt11char_traitsIcESaIcEEERKS0_RKNS_11StringPieceE
libre2.so.10:_ZN3re23RE213PartialMatchNERKNS_11StringPieceERKS0_PKPKNS0_3ArgEi
libre2.so.10:_ZN3re23RE215FindAndConsumeNEPNS_11StringPieceERKS0_PKPKNS0_3ArgEi
libre2.so.10:_ZN3re23RE23Set3AddERKNS_11StringPieceEPNSt7__cxx1112basic_stringIcSt11char_traitsIcESaIcEEE
libre2.so.10:_ZN3re23RE23Set7CompileEv
libre2.so.10:_ZN3re23RE23SetC1EOS1_
libre2.so.10:_ZN3re23RE23SetC1ERKNS0_7OptionsENS0_6AnchorE
libre2.so.10:_ZN3re23RE23SetC2EOS1_
libre2.so.10:_ZN3re23RE23SetC2ERKNS0_7OptionsENS0_6AnchorE
libre2.so.10:_ZN3re23RE23SetD1Ev
libre2.so.10:_ZN3re23RE23SetD2Ev
libre2.so.10:_ZN3re23RE23SetaSEOS1_
libre2.so.10:_ZN3re23RE24InitERKNS_11StringPieceERKNS0_7OptionsE
libre2.so.10:_ZN3re23RE27ExtractERKNS_11StringPieceERKS0_S3_PNSt7__cxx1112basic_stringIcSt11char_traitsIcESaIcEEE
libre2.so.10:_ZN3re23RE27OptionsC1ENS0_13CannedOptionsE
libre2.so.10:_ZN3re23RE27OptionsC2ENS0_13CannedOptionsE
libre2.so.10:_ZN3re23RE27ReplaceEPNSt7__cxx1112basic_stringIcSt11char_traitsIcESaIcEEERKS0_RKNS_11StringPieceE
libre2.so.10:_ZN3re23RE28ConsumeNEPNS_11StringPieceERKS0_PKPKNS0_3ArgEi
libre2.so.10:_ZN3re23RE29QuoteMetaB5cxx11ERKNS_11StringPieceE
libre2.so.10:_ZN3re23RE2C1EPKc
libre2.so.10:_ZN3re23RE2C1ERKNS_11StringPieceE
libre2.so.10:_ZN3re23RE2C1ERKNS_11StringPieceERKNS0_7OptionsE
libre2.so.10:_ZN3re23RE2C1ERKNSt7__cxx1112basic_stringIcSt11char_traitsIcESaIcEEE
libre2.so.10:_ZN3re23RE2C2EPKc
libre2.so.10:_ZN3re23RE2C2ERKNS_11StringPieceE
libre2.so.10:_ZN3re23RE2C2ERKNS_11StringPieceERKNS0_7OptionsE
libre2.so.10:_ZN3re23RE2C2ERKNSt7__cxx1112basic_stringIcSt11char_traitsIcESaIcEEE
libre2.so.10:_ZN3re23RE2D1Ev
libre2.so.10:_ZN3re23RE2D2Ev
libre2.so.10:_ZN3re2lsERSoRKNS_11StringPieceE
libre2.so.10:_ZNK3re211FilteredRE210AllMatchesERKNS_11StringPieceERKSt6vectorIiSaIiEEPS6_
libre2.so.10:_ZNK3re211FilteredRE210FirstMatchERKNS_11StringPieceERKSt6vectorIiSaIiEE
libre2.so.10:_ZNK3re211FilteredRE213AllPotentialsERKSt6vectorIiSaIiEEPS3_
libre2.so.10:_ZNK3re211FilteredRE214SlowFirstMatchERKNS_11StringPieceE
libre2.so.10:_ZNK3re211StringPiece4copyEPcmm
libre2.so.10:_ZNK3re211StringPiece4findERKS0_m
libre2.so.10:_ZNK3re211StringPiece4findEcm
libre2.so.10:_ZNK3re211StringPiece5rfindERKS0_m
libre2.so.10:_ZNK3re211StringPiece5rfindEcm
libre2.so.10:_ZNK3re211StringPiece6substrEmm
libre2.so.10:_ZNK3re23RE211ProgramSizeEv
libre2.so.10:_ZNK3re23RE211ReverseProgEv
libre2.so.10:_ZNK3re23RE213ProgramFanoutEPSt6vectorIiSaIiEE
libre2.so.10:_ZNK3re23RE218CheckRewriteStringERKNS_11StringPieceEPNSt7__cxx1112basic_stringIcSt11char_traitsIcESaIcEEE
libre2.so.10:_ZNK3re23RE218PossibleMatchRangeEPNSt7__cxx1112basic_stringIcSt11char_traitsIcESaIcEEES7_i
libre2.so.10:_ZNK3re23RE218ReverseProgramSizeEv
libre2.so.10:_ZNK3re23RE219CapturingGroupNamesB5cxx11Ev
libre2.so.10:_ZNK3re23RE220NamedCapturingGroupsB5cxx11Ev
libre2.so.10:_ZNK3re23RE220ReverseProgramFanoutEPSt6vectorIiSaIiEE
libre2.so.10:_ZNK3re23RE23Set5MatchERKNS_11StringPieceEPSt6vectorIiSaIiEE
libre2.so.10:_ZNK3re23RE23Set5MatchERKNS_11StringPieceEPSt6vectorIiSaIiEEPNS1_9ErrorInfoE
libre2.so.10:_ZNK3re23RE25MatchERKNS_11StringPieceEmmNS0_6AnchorEPS1_i
libre2.so.10:_ZNK3re23RE27DoMatchERKNS_11StringPieceENS0_6AnchorEPmPKPKNS0_3ArgEi
libre2.so.10:_ZNK3re23RE27Options10ParseFlagsEv
libre2.so.10:_ZNK3re23RE27RewriteEPNSt7__cxx1112basic_stringIcSt11char_traitsIcESaIcEEERKNS_11StringPieceEPS9_i
